
C:\ride_project\FlollowtheSunshine\obj\main.o:     file format elf32-littlearm
C:\ride_project\FlollowtheSunshine\obj\main.o

Disassembly of section .text.main:

00000000 <main>:
main():
C:\ride_project\FlollowtheSunshine\src/main.c:60
#define CDS2_PORT                   GPIOC
#define CDS2_ADC                    ADC2
#define CDS2_CHANNEL                ADC_Channel_15

int main(void)
{
   0:	b570      	push	{r4, r5, r6, lr}
C:\ride_project\FlollowtheSunshine\src/main.c:65
    //RCC 초기화
    SystemInit();
    
    USART3_config usart3;
    initUSART3(&usart3, GPIOB, GPIO_Pin_10, GPIO_Pin_11, 9600);
   2:	4c67      	ldr	r4, [pc, #412]	(1a0 <main+0x1a0>)
C:\ride_project\FlollowtheSunshine\src/main.c:60
#define CDS2_PORT                   GPIOC
#define CDS2_ADC                    ADC2
#define CDS2_CHANNEL                ADC_Channel_15

int main(void)
{
   4:	b09e      	sub	sp, #120
C:\ride_project\FlollowtheSunshine\src/main.c:62
    //RCC 초기화
    SystemInit();
   6:	f7ff fffe 	bl	0 <SystemInit>
C:\ride_project\FlollowtheSunshine\src/main.c:65
    
    USART3_config usart3;
    initUSART3(&usart3, GPIOB, GPIO_Pin_10, GPIO_Pin_11, 9600);
   a:	f44f 5316 	mov.w	r3, #9600	; 0x2580
   e:	4621      	mov	r1, r4
  10:	9300      	str	r3, [sp, #0]
  12:	a81b      	add	r0, sp, #108
  14:	f44f 6280 	mov.w	r2, #1024	; 0x400
  18:	f5a3 53ec 	sub.w	r3, r3, #7552	; 0x1d80
  1c:	f7ff fffe 	bl	0 <initUSART3>
C:\ride_project\FlollowtheSunshine\src/main.c:70
    
    MotorConfig motorconfig;
    motorconfig.wheel1.index =      MOTOR_WHEEL1_INDEX;
    motorconfig.wheel1.dir =        MOTOR_WHEEL1_DIR;
    motorconfig.wheel1.dirPin =     MOTOR_WHEEL1_DIRPIN;
  20:	f04f 0340 	mov.w	r3, #64	; 0x40
  24:	f8ad 300a 	strh.w	r3, [sp, #10]
C:\ride_project\FlollowtheSunshine\src/main.c:72
    motorconfig.wheel1.dirPort =    MOTOR_WHEEL1_DIRPROT;
    motorconfig.wheel1.pwmPin =     MOTOR_WHEEL1_PWMPIN;
  28:	f44f 5380 	mov.w	r3, #4096	; 0x1000
  2c:	f8ad 3014 	strh.w	r3, [sp, #20]
C:\ride_project\FlollowtheSunshine\src/main.c:75
    motorconfig.wheel1.pwmPort =    MOTOR_WHEEL1_PWMPORT;
    
    motorconfig.wheel2.index =      MOTOR_WHEEL2_INDEX;
  30:	2302      	movs	r3, #2
  32:	f88d 3018 	strb.w	r3, [sp, #24]
C:\ride_project\FlollowtheSunshine\src/main.c:77
    motorconfig.wheel2.dir =        MOTOR_WHEEL2_DIR;
    motorconfig.wheel2.dirPin =     MOTOR_WHEEL2_DIRPIN;
  36:	f04f 0380 	mov.w	r3, #128	; 0x80
  3a:	f8ad 301a 	strh.w	r3, [sp, #26]
C:\ride_project\FlollowtheSunshine\src/main.c:79
    motorconfig.wheel2.dirPort =    MOTOR_WHEEL2_DIRPROT;
    motorconfig.wheel2.pwmPin =     MOTOR_WHEEL2_PWMPIN;
  3e:	f44f 5300 	mov.w	r3, #8192	; 0x2000
  42:	f8ad 3024 	strh.w	r3, [sp, #36]
C:\ride_project\FlollowtheSunshine\src/main.c:82
    motorconfig.wheel2.pwmPort =    MOTOR_WHEEL2_PWMPORT;
    
    motorconfig.waterPump.index =   MOTOR_WATERPUMP_INDEX;
  46:	2303      	movs	r3, #3
  48:	f88d 3028 	strb.w	r3, [sp, #40]
C:\ride_project\FlollowtheSunshine\src/main.c:84
    motorconfig.waterPump.dir =     MOTOR_WATERPUMP_DIR;  
    motorconfig.waterPump.dirPin =  MOTOR_WATERPUMP_DIRPIN;
  4c:	f44f 7380 	mov.w	r3, #256	; 0x100
  50:	f8ad 302a 	strh.w	r3, [sp, #42]
C:\ride_project\FlollowtheSunshine\src/main.c:86
    motorconfig.waterPump.dirPort = MOTOR_WATERPUMP_DIRPROT;
    motorconfig.waterPump.pwmPin =  MOTOR_WATERPUMP_PWMPIN;
  54:	f44f 4380 	mov.w	r3, #16384	; 0x4000
C:\ride_project\FlollowtheSunshine\src/main.c:90
    motorconfig.waterPump.pwmPort = MOTOR_WATERPUMP_PWMPORT;
    
    motorconfig.timer =             MOTOR_TIMER;
    initMotor(&motorconfig);
  58:	ad02      	add	r5, sp, #8
C:\ride_project\FlollowtheSunshine\src/main.c:86
    
    motorconfig.waterPump.index =   MOTOR_WATERPUMP_INDEX;
    motorconfig.waterPump.dir =     MOTOR_WATERPUMP_DIR;  
    motorconfig.waterPump.dirPin =  MOTOR_WATERPUMP_DIRPIN;
    motorconfig.waterPump.dirPort = MOTOR_WATERPUMP_DIRPROT;
    motorconfig.waterPump.pwmPin =  MOTOR_WATERPUMP_PWMPIN;
  5a:	f8ad 3034 	strh.w	r3, [sp, #52]
C:\ride_project\FlollowtheSunshine\src/main.c:89
    motorconfig.waterPump.pwmPort = MOTOR_WATERPUMP_PWMPORT;
    
    motorconfig.timer =             MOTOR_TIMER;
  5e:	4b51      	ldr	r3, [pc, #324]	(1a4 <main+0x1a4>)
C:\ride_project\FlollowtheSunshine\src/main.c:68
    
    USART3_config usart3;
    initUSART3(&usart3, GPIOB, GPIO_Pin_10, GPIO_Pin_11, 9600);
    
    MotorConfig motorconfig;
    motorconfig.wheel1.index =      MOTOR_WHEEL1_INDEX;
  60:	2201      	movs	r2, #1
C:\ride_project\FlollowtheSunshine\src/main.c:90
    motorconfig.waterPump.dirPort = MOTOR_WATERPUMP_DIRPROT;
    motorconfig.waterPump.pwmPin =  MOTOR_WATERPUMP_PWMPIN;
    motorconfig.waterPump.pwmPort = MOTOR_WATERPUMP_PWMPORT;
    
    motorconfig.timer =             MOTOR_TIMER;
    initMotor(&motorconfig);
  62:	4628      	mov	r0, r5
C:\ride_project\FlollowtheSunshine\src/main.c:68
    
    USART3_config usart3;
    initUSART3(&usart3, GPIOB, GPIO_Pin_10, GPIO_Pin_11, 9600);
    
    MotorConfig motorconfig;
    motorconfig.wheel1.index =      MOTOR_WHEEL1_INDEX;
  64:	f88d 2008 	strb.w	r2, [sp, #8]
C:\ride_project\FlollowtheSunshine\src/main.c:69
    motorconfig.wheel1.dir =        MOTOR_WHEEL1_DIR;
  68:	f88d 2016 	strb.w	r2, [sp, #22]
C:\ride_project\FlollowtheSunshine\src/main.c:71
    motorconfig.wheel1.dirPin =     MOTOR_WHEEL1_DIRPIN;
    motorconfig.wheel1.dirPort =    MOTOR_WHEEL1_DIRPROT;
  6c:	9403      	str	r4, [sp, #12]
C:\ride_project\FlollowtheSunshine\src/main.c:73
    motorconfig.wheel1.pwmPin =     MOTOR_WHEEL1_PWMPIN;
    motorconfig.wheel1.pwmPort =    MOTOR_WHEEL1_PWMPORT;
  6e:	9404      	str	r4, [sp, #16]
C:\ride_project\FlollowtheSunshine\src/main.c:76
    
    motorconfig.wheel2.index =      MOTOR_WHEEL2_INDEX;
    motorconfig.wheel2.dir =        MOTOR_WHEEL2_DIR;
  70:	f88d 2026 	strb.w	r2, [sp, #38]
C:\ride_project\FlollowtheSunshine\src/main.c:78
    motorconfig.wheel2.dirPin =     MOTOR_WHEEL2_DIRPIN;
    motorconfig.wheel2.dirPort =    MOTOR_WHEEL2_DIRPROT;
  74:	9407      	str	r4, [sp, #28]
C:\ride_project\FlollowtheSunshine\src/main.c:80
    motorconfig.wheel2.pwmPin =     MOTOR_WHEEL2_PWMPIN;
    motorconfig.wheel2.pwmPort =    MOTOR_WHEEL2_PWMPORT;
  76:	9408      	str	r4, [sp, #32]
C:\ride_project\FlollowtheSunshine\src/main.c:83
    
    motorconfig.waterPump.index =   MOTOR_WATERPUMP_INDEX;
    motorconfig.waterPump.dir =     MOTOR_WATERPUMP_DIR;  
  78:	f88d 2036 	strb.w	r2, [sp, #54]
C:\ride_project\FlollowtheSunshine\src/main.c:85
    motorconfig.waterPump.dirPin =  MOTOR_WATERPUMP_DIRPIN;
    motorconfig.waterPump.dirPort = MOTOR_WATERPUMP_DIRPROT;
  7c:	940b      	str	r4, [sp, #44]
C:\ride_project\FlollowtheSunshine\src/main.c:87
    motorconfig.waterPump.pwmPin =  MOTOR_WATERPUMP_PWMPIN;
    motorconfig.waterPump.pwmPort = MOTOR_WATERPUMP_PWMPORT;
  7e:	940c      	str	r4, [sp, #48]
C:\ride_project\FlollowtheSunshine\src/main.c:89
    
    motorconfig.timer =             MOTOR_TIMER;
  80:	930e      	str	r3, [sp, #56]
C:\ride_project\FlollowtheSunshine\src/main.c:93
    initMotor(&motorconfig);
    
    SoilMoisture soilmoisture;
    initSoilMoistureSensor(&soilmoisture, SOIL_MOISTURE_PORT, SOIL_MOISTURE_PIN, SOIL_MOISTURE_ADC, SOIL_MOISTURE_CHANNEL);
  82:	ac17      	add	r4, sp, #92
C:\ride_project\FlollowtheSunshine\src/main.c:90
    motorconfig.waterPump.dirPort = MOTOR_WATERPUMP_DIRPROT;
    motorconfig.waterPump.pwmPin =  MOTOR_WATERPUMP_PWMPIN;
    motorconfig.waterPump.pwmPort = MOTOR_WATERPUMP_PWMPORT;
    
    motorconfig.timer =             MOTOR_TIMER;
    initMotor(&motorconfig);
  84:	f7ff fffe 	bl	0 <initMotor>
C:\ride_project\FlollowtheSunshine\src/main.c:93
    
    SoilMoisture soilmoisture;
    initSoilMoistureSensor(&soilmoisture, SOIL_MOISTURE_PORT, SOIL_MOISTURE_PIN, SOIL_MOISTURE_ADC, SOIL_MOISTURE_CHANNEL);
  88:	2304      	movs	r3, #4
  8a:	4620      	mov	r0, r4
  8c:	9300      	str	r3, [sp, #0]
  8e:	4946      	ldr	r1, [pc, #280]	(1a8 <main+0x1a8>)
  90:	2210      	movs	r2, #16
  92:	4b46      	ldr	r3, [pc, #280]	(1ac <main+0x1ac>)
  94:	f7ff fffe 	bl	0 <initSoilMoistureSensor>
C:\ride_project\FlollowtheSunshine\src/main.c:97
    
    CDS cds1;
    cds1.port =     CDS1_PORT;
    cds1.pin =      CDS1_PIN;
  98:	f04f 0310 	mov.w	r3, #16	; 0x10
  9c:	f8ad 3050 	strh.w	r3, [sp, #80]
C:\ride_project\FlollowtheSunshine\src/main.c:99
    cds1.adc =      CDS1_ADC;
    cds1.channel =  CDS1_CHANNEL;
  a0:	230e      	movs	r3, #14
C:\ride_project\FlollowtheSunshine\src/main.c:98
    initSoilMoistureSensor(&soilmoisture, SOIL_MOISTURE_PORT, SOIL_MOISTURE_PIN, SOIL_MOISTURE_ADC, SOIL_MOISTURE_CHANNEL);
    
    CDS cds1;
    cds1.port =     CDS1_PORT;
    cds1.pin =      CDS1_PIN;
    cds1.adc =      CDS1_ADC;
  a2:	4a43      	ldr	r2, [pc, #268]	(1b0 <main+0x1b0>)
C:\ride_project\FlollowtheSunshine\src/main.c:96
    
    SoilMoisture soilmoisture;
    initSoilMoistureSensor(&soilmoisture, SOIL_MOISTURE_PORT, SOIL_MOISTURE_PIN, SOIL_MOISTURE_ADC, SOIL_MOISTURE_CHANNEL);
    
    CDS cds1;
    cds1.port =     CDS1_PORT;
  a4:	4943      	ldr	r1, [pc, #268]	(1b4 <main+0x1b4>)
C:\ride_project\FlollowtheSunshine\src/main.c:99
    cds1.pin =      CDS1_PIN;
    cds1.adc =      CDS1_ADC;
    cds1.channel =  CDS1_CHANNEL;
  a6:	f88d 3058 	strb.w	r3, [sp, #88]
C:\ride_project\FlollowtheSunshine\src/main.c:103
    
    CDS cds2;
    cds2.port =     CDS2_PORT;
    cds2.pin =      CDS2_PIN;
  aa:	f04f 0320 	mov.w	r3, #32	; 0x20
  ae:	f8ad 3040 	strh.w	r3, [sp, #64]
C:\ride_project\FlollowtheSunshine\src/main.c:107
    cds2.adc =      CDS2_ADC;
    cds2.channel =  CDS2_CHANNEL;
    
    printf("start!\n");
  b2:	4841      	ldr	r0, [pc, #260]	(1b8 <main+0x1b8>)
C:\ride_project\FlollowtheSunshine\src/main.c:105
    
    CDS cds2;
    cds2.port =     CDS2_PORT;
    cds2.pin =      CDS2_PIN;
    cds2.adc =      CDS2_ADC;
    cds2.channel =  CDS2_CHANNEL;
  b4:	230f      	movs	r3, #15
C:\ride_project\FlollowtheSunshine\src/main.c:98
    initSoilMoistureSensor(&soilmoisture, SOIL_MOISTURE_PORT, SOIL_MOISTURE_PIN, SOIL_MOISTURE_ADC, SOIL_MOISTURE_CHANNEL);
    
    CDS cds1;
    cds1.port =     CDS1_PORT;
    cds1.pin =      CDS1_PIN;
    cds1.adc =      CDS1_ADC;
  b6:	9215      	str	r2, [sp, #84]
C:\ride_project\FlollowtheSunshine\src/main.c:104
    cds1.channel =  CDS1_CHANNEL;
    
    CDS cds2;
    cds2.port =     CDS2_PORT;
    cds2.pin =      CDS2_PIN;
    cds2.adc =      CDS2_ADC;
  b8:	9211      	str	r2, [sp, #68]
C:\ride_project\FlollowtheSunshine\src/main.c:105
    cds2.channel =  CDS2_CHANNEL;
  ba:	f88d 3048 	strb.w	r3, [sp, #72]
C:\ride_project\FlollowtheSunshine\src/main.c:96
    
    SoilMoisture soilmoisture;
    initSoilMoistureSensor(&soilmoisture, SOIL_MOISTURE_PORT, SOIL_MOISTURE_PIN, SOIL_MOISTURE_ADC, SOIL_MOISTURE_CHANNEL);
    
    CDS cds1;
    cds1.port =     CDS1_PORT;
  be:	9113      	str	r1, [sp, #76]
C:\ride_project\FlollowtheSunshine\src/main.c:102
    cds1.pin =      CDS1_PIN;
    cds1.adc =      CDS1_ADC;
    cds1.channel =  CDS1_CHANNEL;
    
    CDS cds2;
    cds2.port =     CDS2_PORT;
  c0:	910f      	str	r1, [sp, #60]
C:\ride_project\FlollowtheSunshine\src/main.c:107
    cds2.pin =      CDS2_PIN;
    cds2.adc =      CDS2_ADC;
    cds2.channel =  CDS2_CHANNEL;
    
    printf("start!\n");
  c2:	f7ff fffe 	bl	0 <puts>
C:\ride_project\FlollowtheSunshine\src/main.c:111
    
    uint16_t sm, c1, c2;
    
    sm = readSoilMoistureValue(&soilmoisture);
  c6:	4620      	mov	r0, r4
  c8:	f7ff fffe 	bl	0 <readSoilMoistureValue>
C:\ride_project\FlollowtheSunshine\src/main.c:114
    printf("soilmoisture: %d\n", sm);
    
    initCDSSensor(&cds1);
  cc:	ac13      	add	r4, sp, #76
C:\ride_project\FlollowtheSunshine\src/main.c:111
    
    printf("start!\n");
    
    uint16_t sm, c1, c2;
    
    sm = readSoilMoistureValue(&soilmoisture);
  ce:	4601      	mov	r1, r0
C:\ride_project\FlollowtheSunshine\src/main.c:112
    printf("soilmoisture: %d\n", sm);
  d0:	483a      	ldr	r0, [pc, #232]	(1bc <main+0x1bc>)
  d2:	f7ff fffe 	bl	0 <printf>
C:\ride_project\FlollowtheSunshine\src/main.c:114
    
    initCDSSensor(&cds1);
  d6:	4620      	mov	r0, r4
  d8:	f7ff fffe 	bl	0 <initCDSSensor>
C:\ride_project\FlollowtheSunshine\src/main.c:115
    c1 = readCDSValue(&cds1);
  dc:	4620      	mov	r0, r4
  de:	f7ff fffe 	bl	0 <readCDSValue>
C:\ride_project\FlollowtheSunshine\src/main.c:118
    printf("cds1: %d\n", c1);
    
    initCDSSensor(&cds2);
  e2:	ac0f      	add	r4, sp, #60
C:\ride_project\FlollowtheSunshine\src/main.c:115
    
    sm = readSoilMoistureValue(&soilmoisture);
    printf("soilmoisture: %d\n", sm);
    
    initCDSSensor(&cds1);
    c1 = readCDSValue(&cds1);
  e4:	4601      	mov	r1, r0
C:\ride_project\FlollowtheSunshine\src/main.c:116
    printf("cds1: %d\n", c1);
  e6:	4836      	ldr	r0, [pc, #216]	(1c0 <main+0x1c0>)
  e8:	f7ff fffe 	bl	0 <printf>
C:\ride_project\FlollowtheSunshine\src/main.c:118
    
    initCDSSensor(&cds2);
  ec:	4620      	mov	r0, r4
  ee:	f7ff fffe 	bl	0 <initCDSSensor>
C:\ride_project\FlollowtheSunshine\src/main.c:119
    c2 = readCDSValue(&cds2);
  f2:	4620      	mov	r0, r4
  f4:	f7ff fffe 	bl	0 <readCDSValue>
  f8:	4601      	mov	r1, r0
C:\ride_project\FlollowtheSunshine\src/main.c:120
    printf("cds2: %d\n", c2);
  fa:	4832      	ldr	r0, [pc, #200]	(1c4 <main+0x1c4>)
  fc:	f7ff fffe 	bl	0 <printf>
C:\ride_project\FlollowtheSunshine\src/main.c:122
    
    toggleMotorDirection(&motorconfig.wheel1);
 100:	4628      	mov	r0, r5
 102:	f7ff fffe 	bl	0 <toggleMotorDirection>
C:\ride_project\FlollowtheSunshine\src/main.c:123
    toggleMotorDirection(&motorconfig.wheel2);
 106:	f105 0010 	add.w	r0, r5, #16	; 0x10
 10a:	f7ff fffe 	bl	0 <toggleMotorDirection>
C:\ride_project\FlollowtheSunshine\src/main.c:124
    toggleMotorDirection(&motorconfig.waterPump);
 10e:	f105 0020 	add.w	r0, r5, #32	; 0x20
 112:	f7ff fffe 	bl	0 <toggleMotorDirection>
C:\ride_project\FlollowtheSunshine\src/main.c:129
    
    uint16_t data =32;
    while(1)
    {
        data = USART_ReceiveData(USART3);
 116:	482c      	ldr	r0, [pc, #176]	(b4 <USART_ReceiveData+0xb4>)
 118:	f7ff fffe 	bl	0 <USART_ReceiveData>
C:\ride_project\FlollowtheSunshine\src/main.c:130
        switch(data)
 11c:	2869      	cmp	r0, #105
 11e:	d002      	beq.n	126 <main+0x126>
 120:	2877      	cmp	r0, #119
 122:	d129      	bne.n	178 <main+0x178>
 124:	e025      	b.n	172 <main+0x172>
C:\ride_project\FlollowtheSunshine\src/main.c:133
        {
        case 'i':
            sm = readSoilMoistureValue(&soilmoisture);
 126:	a817      	add	r0, sp, #92
 128:	f7ff fffe 	bl	0 <readSoilMoistureValue>
C:\ride_project\FlollowtheSunshine\src/main.c:134
            initCDSSensor(&cds1);
 12c:	ac13      	add	r4, sp, #76
C:\ride_project\FlollowtheSunshine\src/main.c:133
    {
        data = USART_ReceiveData(USART3);
        switch(data)
        {
        case 'i':
            sm = readSoilMoistureValue(&soilmoisture);
 12e:	4606      	mov	r6, r0
C:\ride_project\FlollowtheSunshine\src/main.c:134
            initCDSSensor(&cds1);
 130:	4620      	mov	r0, r4
 132:	f7ff fffe 	bl	0 <initCDSSensor>
C:\ride_project\FlollowtheSunshine\src/main.c:135
            c1 = readCDSValue(&cds1);
 136:	4620      	mov	r0, r4
 138:	f7ff fffe 	bl	0 <readCDSValue>
C:\ride_project\FlollowtheSunshine\src/main.c:136
            initCDSSensor(&cds2);
 13c:	ac0f      	add	r4, sp, #60
C:\ride_project\FlollowtheSunshine\src/main.c:135
        switch(data)
        {
        case 'i':
            sm = readSoilMoistureValue(&soilmoisture);
            initCDSSensor(&cds1);
            c1 = readCDSValue(&cds1);
 13e:	4605      	mov	r5, r0
C:\ride_project\FlollowtheSunshine\src/main.c:136
            initCDSSensor(&cds2);
 140:	4620      	mov	r0, r4
 142:	f7ff fffe 	bl	0 <initCDSSensor>
C:\ride_project\FlollowtheSunshine\src/main.c:137
            c2 = readCDSValue(&cds2);
 146:	4620      	mov	r0, r4
 148:	f7ff fffe 	bl	0 <readCDSValue>
C:\ride_project\FlollowtheSunshine\src/main.c:138
            printf("%d %d %d\n", sm, c1, c2);
 14c:	4631      	mov	r1, r6
C:\ride_project\FlollowtheSunshine\src/main.c:137
        case 'i':
            sm = readSoilMoistureValue(&soilmoisture);
            initCDSSensor(&cds1);
            c1 = readCDSValue(&cds1);
            initCDSSensor(&cds2);
            c2 = readCDSValue(&cds2);
 14e:	4603      	mov	r3, r0
C:\ride_project\FlollowtheSunshine\src/main.c:138
            printf("%d %d %d\n", sm, c1, c2);
 150:	462a      	mov	r2, r5
 152:	481e      	ldr	r0, [pc, #120]	(1cc <main+0x1cc>)
 154:	f7ff fffe 	bl	0 <printf>
C:\ride_project\FlollowtheSunshine\src/main.c:139
            delay_m();
 158:	f7ff fffe 	bl	0 <delay_m>
C:\ride_project\FlollowtheSunshine\src/main.c:140
            delay_m();
 15c:	f7ff fffe 	bl	0 <delay_m>
C:\ride_project\FlollowtheSunshine\src/main.c:141
            delay_m();
 160:	f7ff fffe 	bl	0 <delay_m>
C:\ride_project\FlollowtheSunshine\src/main.c:142
            delay_m();
 164:	f7ff fffe 	bl	0 <delay_m>
C:\ride_project\FlollowtheSunshine\src/main.c:143
            delay_m();
 168:	f7ff fffe 	bl	0 <delay_m>
C:\ride_project\FlollowtheSunshine\src/main.c:144
            delay_m();
 16c:	f7ff fffe 	bl	0 <delay_m>
 170:	e002      	b.n	178 <main+0x178>
C:\ride_project\FlollowtheSunshine\src/main.c:147
            break;
        case 'w':
            printf("hi");
 172:	4817      	ldr	r0, [pc, #92]	(1d0 <main+0x1d0>)
 174:	f7ff fffe 	bl	0 <printf>
C:\ride_project\FlollowtheSunshine\src/main.c:151
            break;
        }
    
        setMotorSpeedByIndex(&motorconfig, 1, 500);
 178:	ac02      	add	r4, sp, #8
 17a:	4620      	mov	r0, r4
 17c:	2101      	movs	r1, #1
 17e:	f44f 72fa 	mov.w	r2, #500	; 0x1f4
 182:	f7ff fffe 	bl	0 <setMotorSpeedByIndex>
C:\ride_project\FlollowtheSunshine\src/main.c:152
        setMotorSpeedByIndex(&motorconfig, 2, 500);
 186:	4620      	mov	r0, r4
 188:	2102      	movs	r1, #2
 18a:	f44f 72fa 	mov.w	r2, #500	; 0x1f4
 18e:	f7ff fffe 	bl	0 <setMotorSpeedByIndex>
C:\ride_project\FlollowtheSunshine\src/main.c:153
        setMotorSpeedByIndex(&motorconfig, 3, 500);
 192:	4620      	mov	r0, r4
 194:	2103      	movs	r1, #3
 196:	f44f 72fa 	mov.w	r2, #500	; 0x1f4
 19a:	f7ff fffe 	bl	0 <setMotorSpeedByIndex>
 19e:	e7ba      	b.n	116 <main+0x116>
 1a0:	40010c00 	.word	0x40010c00
 1a4:	40000800 	.word	0x40000800
 1a8:	40010800 	.word	0x40010800
 1ac:	40012400 	.word	0x40012400
 1b0:	40012800 	.word	0x40012800
 1b4:	40011000 	.word	0x40011000
 1b8:	00000000 	.word	0x00000000
 1bc:	00000007 	.word	0x00000007
 1c0:	00000019 	.word	0x00000019
 1c4:	00000023 	.word	0x00000023
 1c8:	40004800 	.word	0x40004800
 1cc:	0000002d 	.word	0x0000002d
 1d0:	00000037 	.word	0x00000037
